target datalayout = "e-m:e-p270:32:32-p271:32:32-p272:64:64-i64:64-i128:128-f80:128-n8:16:32:64-S128"
target triple = "x86_64-pc-linux-gnu"

%struct.H5FD_multi_t = type { %struct.H5FD_t, %struct.H5FD_multi_fapl_t, [7 x i64], [7 x ptr], [7 x i64], i32, ptr }
%struct.H5FD_t = type { i64, ptr, i64, i32, i64, i64, i64, i64, i64, i8 }
%struct.H5FD_multi_fapl_t = type { [7 x i32], [7 x i64], [7 x ptr], [7 x i64], i8 }

; Function Attrs: nounwind uwtable
define internal i64 @H5FD_multi_sb_size(ptr noundef %0) #0 {
  %2 = alloca ptr, align 8
  %3 = alloca ptr, align 8
  %4 = alloca i32, align 4
  %5 = alloca i64, align 8
  %6 = alloca i32, align 4
  %7 = alloca i32, align 4
  %8 = alloca [7 x i32], align 16
  %9 = alloca i32, align 4
  %10 = alloca i32, align 4
  %11 = alloca [7 x i32], align 16
  %12 = alloca i64, align 8
  store ptr %0, ptr %2, align 8, !tbaa !3
  call void @llvm.lifetime.start.p0(i64 8, ptr %3) #9
  %13 = load ptr, ptr %2, align 8, !tbaa !3
  store ptr %13, ptr %3, align 8, !tbaa !8
  call void @llvm.lifetime.start.p0(i64 4, ptr %4) #9
  store i32 0, ptr %4, align 4, !tbaa !10
  call void @llvm.lifetime.start.p0(i64 8, ptr %5) #9
  store i64 8, ptr %5, align 8, !tbaa !12
  %14 = call i32 @H5Eclear2(i64 noundef 0)
  call void @llvm.lifetime.start.p0(i64 4, ptr %6) #9
  call void @llvm.lifetime.start.p0(i64 4, ptr %7) #9
  call void @llvm.lifetime.start.p0(i64 28, ptr %8) #9
  %15 = getelementptr inbounds [7 x i32], ptr %8, i64 0, i64 0
  call void @llvm.memset.p0.i64(ptr align 16 %15, i8 0, i64 28, i1 false)
  store i32 1, ptr %6, align 4, !tbaa !10
  br label %16

16:                                               ; preds = %42, %1
  %17 = load i32, ptr %6, align 4, !tbaa !10
  %18 = icmp slt i32 %17, 7
  br i1 %18, label %19, label %45

19:                                               ; preds = %16
  %20 = load ptr, ptr %3, align 8, !tbaa !8
  %21 = getelementptr inbounds nuw %struct.H5FD_multi_t, ptr %20, i32 0, i32 1
  %22 = getelementptr inbounds nuw %struct.H5FD_multi_fapl_t, ptr %21, i32 0, i32 0
  %23 = load i32, ptr %6, align 4, !tbaa !10
  %24 = sext i32 %23 to i64
  %25 = getelementptr inbounds [7 x i32], ptr %22, i64 0, i64 %24
  %26 = load i32, ptr %25, align 4, !tbaa !10
  store i32 %26, ptr %7, align 4, !tbaa !10
  %27 = load i32, ptr %7, align 4, !tbaa !10
  %28 = icmp eq i32 0, %27
  br i1 %28, label %29, label %31

29:                                               ; preds = %19
  %30 = load i32, ptr %6, align 4, !tbaa !10
  store i32 %30, ptr %7, align 4, !tbaa !10
  br label %31

31:                                               ; preds = %29, %19
  %32 = load i32, ptr %7, align 4, !tbaa !10
  %33 = sext i32 %32 to i64
  %34 = getelementptr inbounds [7 x i32], ptr %8, i64 0, i64 %33
  %35 = load i32, ptr %34, align 4, !tbaa !10
  %36 = add i32 %35, 1
  store i32 %36, ptr %34, align 4, !tbaa !10
  %37 = icmp ne i32 %35, 0
  br i1 %37, label %38, label %39

38:                                               ; preds = %31
  br label %42

39:                                               ; preds = %31
  %40 = load i32, ptr %4, align 4, !tbaa !10
  %41 = add i32 %40, 1
  store i32 %41, ptr %4, align 4, !tbaa !10
  br label %42

42:                                               ; preds = %39, %38
  %43 = load i32, ptr %6, align 4, !tbaa !10
  %44 = add nsw i32 %43, 1
  store i32 %44, ptr %6, align 4, !tbaa !10
  br label %16, !llvm.loop !14

45:                                               ; preds = %16
  call void @llvm.lifetime.end.p0(i64 28, ptr %8) #9
  call void @llvm.lifetime.end.p0(i64 4, ptr %7) #9
  call void @llvm.lifetime.end.p0(i64 4, ptr %6) #9
  %46 = load i32, ptr %4, align 4, !tbaa !10
  %47 = mul i32 %46, 2
  %48 = mul i32 %47, 8
  %49 = zext i32 %48 to i64
  %50 = load i64, ptr %5, align 8, !tbaa !12
  %51 = add i64 %50, %49
  store i64 %51, ptr %5, align 8, !tbaa !12
  call void @llvm.lifetime.start.p0(i64 4, ptr %9) #9
  call void @llvm.lifetime.start.p0(i64 4, ptr %10) #9
  call void @llvm.lifetime.start.p0(i64 28, ptr %11) #9
  %52 = getelementptr inbounds [7 x i32], ptr %11, i64 0, i64 0
  call void @llvm.memset.p0.i64(ptr align 16 %52, i8 0, i64 28, i1 false)
  store i32 1, ptr %9, align 4, !tbaa !10
  br label %53

53:                                               ; preds = %91, %45
  %54 = load i32, ptr %9, align 4, !tbaa !10
  %55 = icmp slt i32 %54, 7
  br i1 %55, label %56, label %94

56:                                               ; preds = %53
  %57 = load ptr, ptr %3, align 8, !tbaa !8
  %58 = getelementptr inbounds nuw %struct.H5FD_multi_t, ptr %57, i32 0, i32 1
  %59 = getelementptr inbounds nuw %struct.H5FD_multi_fapl_t, ptr %58, i32 0, i32 0
  %60 = load i32, ptr %9, align 4, !tbaa !10
  %61 = sext i32 %60 to i64
  %62 = getelementptr inbounds [7 x i32], ptr %59, i64 0, i64 %61
  %63 = load i32, ptr %62, align 4, !tbaa !10
  store i32 %63, ptr %10, align 4, !tbaa !10
  %64 = load i32, ptr %10, align 4, !tbaa !10
  %65 = icmp eq i32 0, %64
  br i1 %65, label %66, label %68

66:                                               ; preds = %56
  %67 = load i32, ptr %9, align 4, !tbaa !10
  store i32 %67, ptr %10, align 4, !tbaa !10
  br label %68

68:                                               ; preds = %66, %56
  %69 = load i32, ptr %10, align 4, !tbaa !10
  %70 = sext i32 %69 to i64
  %71 = getelementptr inbounds [7 x i32], ptr %11, i64 0, i64 %70
  %72 = load i32, ptr %71, align 4, !tbaa !10
  %73 = add i32 %72, 1
  store i32 %73, ptr %71, align 4, !tbaa !10
  %74 = icmp ne i32 %72, 0
  br i1 %74, label %75, label %76

75:                                               ; preds = %68
  br label %91

76:                                               ; preds = %68
  call void @llvm.lifetime.start.p0(i64 8, ptr %12) #9
  %77 = load ptr, ptr %3, align 8, !tbaa !8
  %78 = getelementptr inbounds nuw %struct.H5FD_multi_t, ptr %77, i32 0, i32 1
  %79 = getelementptr inbounds nuw %struct.H5FD_multi_fapl_t, ptr %78, i32 0, i32 2
  %80 = load i32, ptr %10, align 4, !tbaa !10
  %81 = sext i32 %80 to i64
  %82 = getelementptr inbounds [7 x ptr], ptr %79, i64 0, i64 %81
  %83 = load ptr, ptr %82, align 8, !tbaa !16
  %84 = call i64 @strlen(ptr noundef %83) #10
  %85 = add i64 %84, 1
  store i64 %85, ptr %12, align 8, !tbaa !12
  %86 = load i64, ptr %12, align 8, !tbaa !12
  %87 = add i64 %86, 7
  %88 = and i64 %87, -8
  %89 = load i64, ptr %5, align 8, !tbaa !12
  %90 = add i64 %89, %88
  store i64 %90, ptr %5, align 8, !tbaa !12
  call void @llvm.lifetime.end.p0(i64 8, ptr %12) #9
  br label %91

91:                                               ; preds = %76, %75
  %92 = load i32, ptr %9, align 4, !tbaa !10
  %93 = add nsw i32 %92, 1
  store i32 %93, ptr %9, align 4, !tbaa !10
  br label %53, !llvm.loop !18

94:                                               ; preds = %53
  call void @llvm.lifetime.end.p0(i64 28, ptr %11) #9
  call void @llvm.lifetime.end.p0(i64 4, ptr %10) #9
  call void @llvm.lifetime.end.p0(i64 4, ptr %9) #9
  %95 = load i64, ptr %5, align 8, !tbaa !12
  call void @llvm.lifetime.end.p0(i64 8, ptr %5) #9
  call void @llvm.lifetime.end.p0(i64 4, ptr %4) #9
  call void @llvm.lifetime.end.p0(i64 8, ptr %3) #9
  ret i64 %95
}