; Function Attrs: nounwind uwtable
define internal i64 @H5FD_multi_sb_size(ptr noundef readonly captures(none) %0) #0 {
  %2 = alloca [7 x i32], align 16
  %3 = alloca [7 x i32], align 16
  %4 = tail call i32 @H5Eclear2(i64 noundef 0) #15
  call void @llvm.lifetime.start.p0(i64 28, ptr nonnull %2) #15
  call void @llvm.memset.p0.i64(ptr noundef nonnull align 16 dereferenceable(28) %2, i8 0, i64 28, i1 false)
  %5 = getelementptr inbounds nuw i8, ptr %0, i64 80
  br label %6

6:                                                ; preds = %1, %6
  %indvars.iv = phi i64 [ 1, %1 ], [ %indvars.iv.next, %6 ]
  %.033 = phi i32 [ 0, %1 ], [ %.1, %6 ]
  %7 = getelementptr inbounds nuw [7 x i32], ptr %5, i64 0, i64 %indvars.iv
  %8 = load i32, ptr %7, align 4, !tbaa !3
  %9 = icmp eq i32 %8, 0
  %10 = trunc nuw nsw i64 %indvars.iv to i32
  %spec.select = select i1 %9, i32 %10, i32 %8
  %11 = sext i32 %spec.select to i64
  %12 = getelementptr inbounds [7 x i32], ptr %2, i64 0, i64 %11
  %13 = load i32, ptr %12, align 4, !tbaa !3
  %14 = add i32 %13, 1
  store i32 %14, ptr %12, align 4, !tbaa !3
  %.not30 = icmp eq i32 %13, 0
  %15 = zext i1 %.not30 to i32
  %.1 = add i32 %.033, %15
  %indvars.iv.next = add nuw nsw i64 %indvars.iv, 1
  %exitcond.not = icmp eq i64 %indvars.iv.next, 7
  br i1 %exitcond.not, label %16, label %6, !llvm.loop !7

16:                                               ; preds = %6
  call void @llvm.lifetime.end.p0(i64 28, ptr nonnull %2) #15
  %17 = shl i32 %.1, 4
  %18 = or disjoint i32 %17, 8
  %19 = zext i32 %18 to i64
  call void @llvm.lifetime.start.p0(i64 28, ptr nonnull %3) #15
  call void @llvm.memset.p0.i64(ptr noundef nonnull align 16 dereferenceable(28) %3, i8 0, i64 28, i1 false)
  %20 = getelementptr inbounds nuw i8, ptr %0, i64 168
  br label %21

21:                                               ; preds = %16, %37
  %indvars.iv37 = phi i64 [ 1, %16 ], [ %indvars.iv.next38, %37 ]
  %.02634 = phi i64 [ %19, %16 ], [ %.127, %37 ]
  %22 = getelementptr inbounds nuw [7 x i32], ptr %5, i64 0, i64 %indvars.iv37
  %23 = load i32, ptr %22, align 4, !tbaa !3
  %24 = icmp eq i32 %23, 0
  %25 = trunc nuw nsw i64 %indvars.iv37 to i32
  %spec.select31 = select i1 %24, i32 %25, i32 %23
  %26 = sext i32 %spec.select31 to i64
  %27 = getelementptr inbounds [7 x i32], ptr %3, i64 0, i64 %26
  %28 = load i32, ptr %27, align 4, !tbaa !3
  %29 = add i32 %28, 1
  store i32 %29, ptr %27, align 4, !tbaa !3
  %.not = icmp eq i32 %28, 0
  br i1 %.not, label %30, label %37

30:                                               ; preds = %21
  %31 = getelementptr inbounds [7 x ptr], ptr %20, i64 0, i64 %26
  %32 = load ptr, ptr %31, align 8, !tbaa !9
  %33 = tail call i64 @strlen(ptr noundef nonnull dereferenceable(1) %32) #16
  %34 = and i64 %33, -8
  %35 = add i64 %.02634, 8
  %36 = add i64 %35, %34
  br label %37

37:                                               ; preds = %21, %30
  %.127 = phi i64 [ %.02634, %21 ], [ %36, %30 ]
  %indvars.iv.next38 = add nuw nsw i64 %indvars.iv37, 1
  %exitcond40.not = icmp eq i64 %indvars.iv.next38, 7
  br i1 %exitcond40.not, label %38, label %21, !llvm.loop !12

38:                                               ; preds = %37
  call void @llvm.lifetime.end.p0(i64 28, ptr nonnull %3) #15
  ret i64 %.127
}